(lp0
F144.9441673286852
aF151.99330995965653
aF171.2747044522019
aF146.34085682015038
aF128.73722251642033
aF138.44955057886818
aF152.69356559718722
aF151.42788056406349
aF182.35451041177498
aF134.46307668297828
aF137.28782441842128
aF134.86387677330998
aF146.43276409284562
aF142.8931372670975
aF136.73942172948904
aF153.77317302545814
aF138.57905870599703
aF154.62364197588857
aF136.28897256267763
aF120.54946420574883
aF147.57404437612337
aF166.8429315774436
aF116.96485827619391
aF125.61496150544332
aF162.4302566661262
aF150.4382009729881
aF176.4403467263416
a.