(lp0
F1221.6304444444447
aF1312.5524444444447
aF1325.921111111111
aF1221.9071111111116
aF1186.9203333333337
aF1246.5243333333333
aF1264.5303333333334
aF1262.829333333333
aF1364.2256666666667
aF1264.0922222222223
aF1143.7746666666665
aF1188.881777777778
aF1162.6644444444441
aF1212.5703333333333
aF1284.859777777777
aF1363.955888888889
aF1214.987888888889
aF1328.0087777777776
aF1157.651888888889
aF1205.896777777778
aF1185.182111111111
aF1347.2001111111117
aF1101.6628888888888
aF1272.989
aF1323.386555555556
aF1328.3604444444445
aF1314.495
a.