(lp0
F153.8667167153205
aF153.54933152313205
aF165.8562288560402
aF146.54717726030844
aF132.788852566486
aF143.76686260218813
aF153.20944997235546
aF151.6934741560412
aF189.36767297434764
aF134.64153425562944
aF149.67313209499767
aF136.1248230845052
aF158.30765564870777
aF150.107264099947
aF138.2953316884295
aF148.47752476992034
aF142.48154906139018
aF153.8942797536518
aF140.8756042655949
aF123.43365419467689
aF151.85489289806497
aF169.02483948926246
aF120.90156052801906
aF128.56543190822944
aF161.73927957939333
aF155.33710263955396
aF178.79314903223514
a.